target datalayout = "e-m:e-p270:32:32-p271:32:32-p272:64:64-i64:64-i128:128-f80:128-n8:16:32:64-S128"
target triple = "x86_64-pc-linux-gnu"

%class.colvarproxy_smp = type { ptr, i8, ptr }

; Function Attrs: mustprogress uwtable
define void @_ZN15colvarproxy_smpC2Ev(ptr noundef nonnull align 8 dereferenceable(24) %0) unnamed_addr #1 align 2 {
  %2 = alloca ptr, align 8
  store ptr %0, ptr %2, align 8, !tbaa !21
  %3 = load ptr, ptr %2, align 8
  store ptr getelementptr inbounds inrange(-16, 88) ({ [13 x ptr] }, ptr @_ZTV15colvarproxy_smp, i32 0, i32 0, i32 2), ptr %3, align 8, !tbaa !44
  %4 = getelementptr inbounds nuw %class.colvarproxy_smp, ptr %3, i32 0, i32 1
  store i8 1, ptr %4, align 8, !tbaa !23
  %5 = getelementptr inbounds nuw %class.colvarproxy_smp, ptr %3, i32 0, i32 2
  store ptr null, ptr %5, align 8, !tbaa !33
  %6 = call i32 @omp_get_thread_num()
  %7 = icmp eq i32 %6, 0
  br i1 %7, label %8, label %13

8:                                                ; preds = %1
  %9 = call noalias noundef nonnull ptr @_Znwm(i64 noundef 8) #23
  %10 = getelementptr inbounds nuw %class.colvarproxy_smp, ptr %3, i32 0, i32 2
  store ptr %9, ptr %10, align 8, !tbaa !33
  %11 = getelementptr inbounds nuw %class.colvarproxy_smp, ptr %3, i32 0, i32 2
  %12 = load ptr, ptr %11, align 8, !tbaa !33
  call void @omp_init_lock(ptr noundef %12)
  br label %13

13:                                               ; preds = %8, %1
  ret void
}