; Function Attrs: mustprogress uwtable
define void @_ZN15colvarproxy_smpC2Ev(ptr noundef nonnull writeonly align 8 captures(none) dereferenceable(24) initializes((0, 9), (16, 24)) %0) unnamed_addr #2 align 2 {
  store ptr getelementptr inbounds nuw inrange(-16, 88) (i8, ptr @_ZTV15colvarproxy_smp, i64 16), ptr %0, align 8, !tbaa !36
  %2 = getelementptr inbounds nuw i8, ptr %0, i64 8
  store i8 1, ptr %2, align 8, !tbaa !23
  %3 = getelementptr inbounds nuw i8, ptr %0, i64 16
  store ptr null, ptr %3, align 8, !tbaa !35
  %4 = tail call i32 @omp_get_thread_num()
  %5 = icmp eq i32 %4, 0
  br i1 %5, label %6, label %8

6:                                                ; preds = %1
  %7 = tail call noalias noundef nonnull dereferenceable(8) ptr @_Znwm(i64 noundef 8) #36
  store ptr %7, ptr %3, align 8, !tbaa !35
  tail call void @omp_init_lock(ptr noundef nonnull %7)
  br label %8

8:                                                ; preds = %6, %1
  ret void
}